target datalayout = "e-m:e-p270:32:32-p271:32:32-p272:64:64-i64:64-i128:128-f80:128-n8:16:32:64-S128"
target triple = "x86_64-pc-linux-gnu"

%struct.slist_wc = type { ptr, ptr }
%struct.curl_slist = type { ptr, ptr }
%struct.GlobalConfig = type { i8, i8, i8, i8, i8, ptr, ptr, i8, i32, i8, i8, i32, ptr, i8, i8, i64, ptr, i8, i16, i8, ptr, ptr, ptr, ptr, ptr }

@easysrc_decl = dso_local global ptr null, align 8
@easysrc_data = dso_local global ptr null, align 8
@easysrc_code = dso_local global ptr null, align 8
@easysrc_toohard = dso_local global ptr null, align 8
@easysrc_clean = dso_local global ptr null, align 8
@.str.6 = private unnamed_addr constant [2 x i8] c"-\00", align 1
@.str.7 = private unnamed_addr constant [2 x i8] c"w\00", align 1
@stdout = external global ptr, align 8
@.str.8 = private unnamed_addr constant [40 x i8] c"Failed to open %s to write libcurl code\00", align 1
@srchead = internal constant [11 x ptr] [ptr @.str.15, ptr @.str.16, ptr @.str.17, ptr @.str.18, ptr @.str.19, ptr @.str.1, ptr @.str.20, ptr @.str.21, ptr @.str.22, ptr @.str.23, ptr null], align 16
@.str.9 = private unnamed_addr constant [4 x i8] c"%s\0A\00", align 1
@.str.10 = private unnamed_addr constant [6 x i8] c"  %s\0A\00", align 1
@.str.11 = private unnamed_addr constant [2 x i8] c"\0A\00", align 1
@srcend = internal constant [5 x ptr] [ptr @.str.1, ptr @.str.24, ptr @.str.25, ptr @.str.26, ptr null], align 16

; Function Attrs: nounwind uwtable
define internal void @easysrc_free() #0 {
  %1 = load ptr, ptr @easysrc_decl, align 8, !tbaa !13
  call void @slist_wc_free_all(ptr noundef %1)
  store ptr null, ptr @easysrc_decl, align 8, !tbaa !13
  %2 = load ptr, ptr @easysrc_data, align 8, !tbaa !13
  call void @slist_wc_free_all(ptr noundef %2)
  store ptr null, ptr @easysrc_data, align 8, !tbaa !13
  %3 = load ptr, ptr @easysrc_code, align 8, !tbaa !13
  call void @slist_wc_free_all(ptr noundef %3)
  store ptr null, ptr @easysrc_code, align 8, !tbaa !13
  %4 = load ptr, ptr @easysrc_toohard, align 8, !tbaa !13
  call void @slist_wc_free_all(ptr noundef %4)
  store ptr null, ptr @easysrc_toohard, align 8, !tbaa !13
  %5 = load ptr, ptr @easysrc_clean, align 8, !tbaa !13
  call void @slist_wc_free_all(ptr noundef %5)
  store ptr null, ptr @easysrc_clean, align 8, !tbaa !13
  ret void
}

; Function Attrs: nounwind uwtable
define dso_local void @dumpeasysrc(ptr noundef %0) #0 {
  %2 = alloca ptr, align 8
  %3 = alloca ptr, align 8
  %4 = alloca ptr, align 8
  %5 = alloca ptr, align 8
  %6 = alloca i8, align 1
  %7 = alloca i32, align 4
  %8 = alloca ptr, align 8
  store ptr %0, ptr %2, align 8, !tbaa !25
  call void @llvm.lifetime.start.p0(i64 8, ptr %3) #5
  call void @llvm.lifetime.start.p0(i64 8, ptr %4) #5
  %9 = load ptr, ptr %2, align 8, !tbaa !25
  %10 = getelementptr inbounds nuw %struct.GlobalConfig, ptr %9, i32 0, i32 12
  %11 = load ptr, ptr %10, align 8, !tbaa !27
  store ptr %11, ptr %4, align 8, !tbaa !9
  call void @llvm.lifetime.start.p0(i64 8, ptr %5) #5
  call void @llvm.lifetime.start.p0(i64 1, ptr %6) #5
  store i8 0, ptr %6, align 1, !tbaa !35
  %12 = load ptr, ptr %4, align 8, !tbaa !9
  %13 = call i32 @strcmp(ptr noundef %12, ptr noundef @.str.6) #6
  %14 = icmp ne i32 %13, 0
  br i1 %14, label %15, label %18

15:                                               ; preds = %1
  %16 = load ptr, ptr %4, align 8, !tbaa !9
  %17 = call noalias ptr @fopen(ptr noundef %16, ptr noundef @.str.7)
  store ptr %17, ptr %5, align 8, !tbaa !36
  store i8 1, ptr %6, align 1, !tbaa !35
  br label %20

18:                                               ; preds = %1
  %19 = load ptr, ptr @stdout, align 8, !tbaa !36
  store ptr %19, ptr %5, align 8, !tbaa !36
  br label %20

20:                                               ; preds = %18, %15
  %21 = load ptr, ptr %5, align 8, !tbaa !36
  %22 = icmp ne ptr %21, null
  br i1 %22, label %26, label %23

23:                                               ; preds = %20
  %24 = load ptr, ptr %2, align 8, !tbaa !25
  %25 = load ptr, ptr %4, align 8, !tbaa !9
  call void (ptr, ptr, ...) @warnf(ptr noundef %24, ptr noundef @.str.8, ptr noundef %25)
  br label %160

26:                                               ; preds = %20
  call void @llvm.lifetime.start.p0(i64 4, ptr %7) #5
  call void @llvm.lifetime.start.p0(i64 8, ptr %8) #5
  store i32 0, ptr %7, align 4, !tbaa !11
  br label %27

27:                                               ; preds = %37, %26
  %28 = load i32, ptr %7, align 4, !tbaa !11
  %29 = sext i32 %28 to i64
  %30 = getelementptr inbounds [11 x ptr], ptr @srchead, i64 0, i64 %29
  %31 = load ptr, ptr %30, align 8, !tbaa !9
  store ptr %31, ptr %8, align 8, !tbaa !9
  %32 = icmp ne ptr %31, null
  br i1 %32, label %33, label %40

33:                                               ; preds = %27
  %34 = load ptr, ptr %5, align 8, !tbaa !36
  %35 = load ptr, ptr %8, align 8, !tbaa !9
  %36 = call i32 (ptr, ptr, ...) @curl_mfprintf(ptr noundef %34, ptr noundef @.str.9, ptr noundef %35)
  br label %37

37:                                               ; preds = %33
  %38 = load i32, ptr %7, align 4, !tbaa !11
  %39 = add nsw i32 %38, 1
  store i32 %39, ptr %7, align 4, !tbaa !11
  br label %27, !llvm.loop !37

40:                                               ; preds = %27
  %41 = load ptr, ptr @easysrc_decl, align 8, !tbaa !13
  %42 = icmp ne ptr %41, null
  br i1 %42, label %43, label %61

43:                                               ; preds = %40
  %44 = load ptr, ptr @easysrc_decl, align 8, !tbaa !13
  %45 = getelementptr inbounds nuw %struct.slist_wc, ptr %44, i32 0, i32 0
  %46 = load ptr, ptr %45, align 8, !tbaa !17
  store ptr %46, ptr %3, align 8, !tbaa !20
  br label %47

47:                                               ; preds = %56, %43
  %48 = load ptr, ptr %3, align 8, !tbaa !20
  %49 = icmp ne ptr %48, null
  br i1 %49, label %50, label %60

50:                                               ; preds = %47
  %51 = load ptr, ptr %5, align 8, !tbaa !36
  %52 = load ptr, ptr %3, align 8, !tbaa !20
  %53 = getelementptr inbounds nuw %struct.curl_slist, ptr %52, i32 0, i32 0
  %54 = load ptr, ptr %53, align 8, !tbaa !21
  %55 = call i32 (ptr, ptr, ...) @curl_mfprintf(ptr noundef %51, ptr noundef @.str.10, ptr noundef %54)
  br label %56

56:                                               ; preds = %50
  %57 = load ptr, ptr %3, align 8, !tbaa !20
  %58 = getelementptr inbounds nuw %struct.curl_slist, ptr %57, i32 0, i32 1
  %59 = load ptr, ptr %58, align 8, !tbaa !23
  store ptr %59, ptr %3, align 8, !tbaa !20
  br label %47, !llvm.loop !38

60:                                               ; preds = %47
  br label %61

61:                                               ; preds = %60, %40
  %62 = load ptr, ptr @easysrc_data, align 8, !tbaa !13
  %63 = icmp ne ptr %62, null
  br i1 %63, label %64, label %84

64:                                               ; preds = %61
  %65 = load ptr, ptr %5, align 8, !tbaa !36
  %66 = call i32 (ptr, ptr, ...) @curl_mfprintf(ptr noundef %65, ptr noundef @.str.11)
  %67 = load ptr, ptr @easysrc_data, align 8, !tbaa !13
  %68 = getelementptr inbounds nuw %struct.slist_wc, ptr %67, i32 0, i32 0
  %69 = load ptr, ptr %68, align 8, !tbaa !17
  store ptr %69, ptr %3, align 8, !tbaa !20
  br label %70

70:                                               ; preds = %79, %64
  %71 = load ptr, ptr %3, align 8, !tbaa !20
  %72 = icmp ne ptr %71, null
  br i1 %72, label %73, label %83

73:                                               ; preds = %70
  %74 = load ptr, ptr %5, align 8, !tbaa !36
  %75 = load ptr, ptr %3, align 8, !tbaa !20
  %76 = getelementptr inbounds nuw %struct.curl_slist, ptr %75, i32 0, i32 0
  %77 = load ptr, ptr %76, align 8, !tbaa !21
  %78 = call i32 (ptr, ptr, ...) @curl_mfprintf(ptr noundef %74, ptr noundef @.str.10, ptr noundef %77)
  br label %79

79:                                               ; preds = %73
  %80 = load ptr, ptr %3, align 8, !tbaa !20
  %81 = getelementptr inbounds nuw %struct.curl_slist, ptr %80, i32 0, i32 1
  %82 = load ptr, ptr %81, align 8, !tbaa !23
  store ptr %82, ptr %3, align 8, !tbaa !20
  br label %70, !llvm.loop !39

83:                                               ; preds = %70
  br label %84

84:                                               ; preds = %83, %61
  %85 = load ptr, ptr %5, align 8, !tbaa !36
  %86 = call i32 (ptr, ptr, ...) @curl_mfprintf(ptr noundef %85, ptr noundef @.str.11)
  %87 = load ptr, ptr @easysrc_code, align 8, !tbaa !13
  %88 = icmp ne ptr %87, null
  br i1 %88, label %89, label %118

89:                                               ; preds = %84
  %90 = load ptr, ptr @easysrc_code, align 8, !tbaa !13
  %91 = getelementptr inbounds nuw %struct.slist_wc, ptr %90, i32 0, i32 0
  %92 = load ptr, ptr %91, align 8, !tbaa !17
  store ptr %92, ptr %3, align 8, !tbaa !20
  br label %93

93:                                               ; preds = %113, %89
  %94 = load ptr, ptr %3, align 8, !tbaa !20
  %95 = icmp ne ptr %94, null
  br i1 %95, label %96, label %117

96:                                               ; preds = %93
  %97 = load ptr, ptr %3, align 8, !tbaa !20
  %98 = getelementptr inbounds nuw %struct.curl_slist, ptr %97, i32 0, i32 0
  %99 = load ptr, ptr %98, align 8, !tbaa !21
  %100 = getelementptr inbounds i8, ptr %99, i64 0
  %101 = load i8, ptr %100, align 1, !tbaa !40
  %102 = icmp ne i8 %101, 0
  br i1 %102, label %103, label %109

103:                                              ; preds = %96
  %104 = load ptr, ptr %5, align 8, !tbaa !36
  %105 = load ptr, ptr %3, align 8, !tbaa !20
  %106 = getelementptr inbounds nuw %struct.curl_slist, ptr %105, i32 0, i32 0
  %107 = load ptr, ptr %106, align 8, !tbaa !21
  %108 = call i32 (ptr, ptr, ...) @curl_mfprintf(ptr noundef %104, ptr noundef @.str.10, ptr noundef %107)
  br label %112

109:                                              ; preds = %96
  %110 = load ptr, ptr %5, align 8, !tbaa !36
  %111 = call i32 (ptr, ptr, ...) @curl_mfprintf(ptr noundef %110, ptr noundef @.str.11)
  br label %112

112:                                              ; preds = %109, %103
  br label %113

113:                                              ; preds = %112
  %114 = load ptr, ptr %3, align 8, !tbaa !20
  %115 = getelementptr inbounds nuw %struct.curl_slist, ptr %114, i32 0, i32 1
  %116 = load ptr, ptr %115, align 8, !tbaa !23
  store ptr %116, ptr %3, align 8, !tbaa !20
  br label %93, !llvm.loop !41

117:                                              ; preds = %93
  br label %118

118:                                              ; preds = %117, %84
  %119 = load ptr, ptr @easysrc_clean, align 8, !tbaa !13
  %120 = icmp ne ptr %119, null
  br i1 %120, label %121, label %139

121:                                              ; preds = %118
  %122 = load ptr, ptr @easysrc_clean, align 8, !tbaa !13
  %123 = getelementptr inbounds nuw %struct.slist_wc, ptr %122, i32 0, i32 0
  %124 = load ptr, ptr %123, align 8, !tbaa !17
  store ptr %124, ptr %3, align 8, !tbaa !20
  br label %125

125:                                              ; preds = %134, %121
  %126 = load ptr, ptr %3, align 8, !tbaa !20
  %127 = icmp ne ptr %126, null
  br i1 %127, label %128, label %138

128:                                              ; preds = %125
  %129 = load ptr, ptr %5, align 8, !tbaa !36
  %130 = load ptr, ptr %3, align 8, !tbaa !20
  %131 = getelementptr inbounds nuw %struct.curl_slist, ptr %130, i32 0, i32 0
  %132 = load ptr, ptr %131, align 8, !tbaa !21
  %133 = call i32 (ptr, ptr, ...) @curl_mfprintf(ptr noundef %129, ptr noundef @.str.10, ptr noundef %132)
  br label %134

134:                                              ; preds = %128
  %135 = load ptr, ptr %3, align 8, !tbaa !20
  %136 = getelementptr inbounds nuw %struct.curl_slist, ptr %135, i32 0, i32 1
  %137 = load ptr, ptr %136, align 8, !tbaa !23
  store ptr %137, ptr %3, align 8, !tbaa !20
  br label %125, !llvm.loop !42

138:                                              ; preds = %125
  br label %139

139:                                              ; preds = %138, %118
  store i32 0, ptr %7, align 4, !tbaa !11
  br label %140

140:                                              ; preds = %150, %139
  %141 = load i32, ptr %7, align 4, !tbaa !11
  %142 = sext i32 %141 to i64
  %143 = getelementptr inbounds [5 x ptr], ptr @srcend, i64 0, i64 %142
  %144 = load ptr, ptr %143, align 8, !tbaa !9
  store ptr %144, ptr %8, align 8, !tbaa !9
  %145 = icmp ne ptr %144, null
  br i1 %145, label %146, label %153

146:                                              ; preds = %140
  %147 = load ptr, ptr %5, align 8, !tbaa !36
  %148 = load ptr, ptr %8, align 8, !tbaa !9
  %149 = call i32 (ptr, ptr, ...) @curl_mfprintf(ptr noundef %147, ptr noundef @.str.9, ptr noundef %148)
  br label %150

150:                                              ; preds = %146
  %151 = load i32, ptr %7, align 4, !tbaa !11
  %152 = add nsw i32 %151, 1
  store i32 %152, ptr %7, align 4, !tbaa !11
  br label %140, !llvm.loop !43

153:                                              ; preds = %140
  %154 = load i8, ptr %6, align 1, !tbaa !35, !range !44, !noundef !45
  %155 = trunc i8 %154 to i1
  br i1 %155, label %156, label %159

156:                                              ; preds = %153
  %157 = load ptr, ptr %5, align 8, !tbaa !36
  %158 = call i32 @fclose(ptr noundef %157)
  br label %159

159:                                              ; preds = %156, %153
  call void @llvm.lifetime.end.p0(i64 8, ptr %8) #5
  call void @llvm.lifetime.end.p0(i64 4, ptr %7) #5
  br label %160

160:                                              ; preds = %159, %23
  call void @easysrc_free()
  call void @llvm.lifetime.end.p0(i64 1, ptr %6) #5
  call void @llvm.lifetime.end.p0(i64 8, ptr %5) #5
  call void @llvm.lifetime.end.p0(i64 8, ptr %4) #5
  call void @llvm.lifetime.end.p0(i64 8, ptr %3) #5
  ret void
}