; Function Attrs: nounwind uwtable
define dso_local void @dumpeasysrc(ptr noundef %0) local_unnamed_addr #0 {
sub_0:
  %1 = getelementptr inbounds nuw i8, ptr %0, i64 40
  %2 = load ptr, ptr %1, align 8, !tbaa !18
  %3 = load i8, ptr %2, align 1
  %.not78 = icmp eq i8 %3, 45
  br i1 %.not78, label %.tail, label %.tail.thread

.tail:                                            ; preds = %sub_0
  %4 = getelementptr inbounds nuw i8, ptr %2, i64 1
  %5 = load i8, ptr %4, align 1
  %6 = icmp eq i8 %5, 0
  br i1 %6, label %8, label %.tail.thread

.tail.thread:                                     ; preds = %sub_0, %.tail
  %7 = tail call noalias ptr @fopen(ptr noundef nonnull %2, ptr noundef nonnull @.str.7)
  br label %10

8:                                                ; preds = %.tail
  %9 = load ptr, ptr @stdout, align 8, !tbaa !27
  br label %10

10:                                               ; preds = %8, %.tail.thread
  %.not.not84 = phi i1 [ false, %.tail.thread ], [ true, %8 ]
  %.036 = phi ptr [ %7, %.tail.thread ], [ %9, %8 ]
  %.not44 = icmp eq ptr %.036, null
  br i1 %.not44, label %11, label %.preheader60

11:                                               ; preds = %10
  tail call void (ptr, ptr, ...) @warnf(ptr noundef nonnull %0, ptr noundef nonnull @.str.8, ptr noundef nonnull %2) #5
  br label %47

.preheader60:                                     ; preds = %10, %.preheader60
  %indvars.iv = phi i64 [ %indvars.iv.next, %.preheader60 ], [ 0, %10 ]
  %12 = getelementptr inbounds nuw [11 x ptr], ptr @srchead, i64 0, i64 %indvars.iv
  %13 = load ptr, ptr %12, align 8, !tbaa !9
  %14 = tail call i32 (ptr, ptr, ...) @curl_mfprintf(ptr noundef nonnull %.036, ptr noundef nonnull @.str.9, ptr noundef %13) #5
  %indvars.iv.next = add nuw nsw i64 %indvars.iv, 1
  %.not45 = icmp eq i64 %indvars.iv.next, 10
  br i1 %.not45, label %15, label %.preheader60, !llvm.loop !28

15:                                               ; preds = %.preheader60
  %16 = load ptr, ptr @easysrc_decl, align 8, !tbaa !4
  %.not46 = icmp eq ptr %16, null
  br i1 %.not46, label %.loopexit59, label %.preheader58

.preheader58:                                     ; preds = %15
  %.03762 = load ptr, ptr %16, align 8, !tbaa !13
  %.not4763 = icmp eq ptr %.03762, null
  br i1 %.not4763, label %.loopexit59, label %.lr.ph

.lr.ph:                                           ; preds = %.preheader58, %.lr.ph
  %.03764 = phi ptr [ %.037, %.lr.ph ], [ %.03762, %.preheader58 ]
  %17 = load ptr, ptr %.03764, align 8, !tbaa !15
  %18 = tail call i32 (ptr, ptr, ...) @curl_mfprintf(ptr noundef nonnull %.036, ptr noundef nonnull @.str.10, ptr noundef %17) #5
  %19 = getelementptr inbounds nuw i8, ptr %.03764, i64 8
  %.037 = load ptr, ptr %19, align 8, !tbaa !13
  %.not47 = icmp eq ptr %.037, null
  br i1 %.not47, label %.loopexit59, label %.lr.ph, !llvm.loop !29

.loopexit59:                                      ; preds = %.lr.ph, %.preheader58, %15
  %20 = load ptr, ptr @easysrc_data, align 8, !tbaa !4
  %.not48 = icmp eq ptr %20, null
  br i1 %.not48, label %.loopexit57, label %21

21:                                               ; preds = %.loopexit59
  %22 = tail call i32 (ptr, ptr, ...) @curl_mfprintf(ptr noundef nonnull %.036, ptr noundef nonnull @.str.11) #5
  %23 = load ptr, ptr @easysrc_data, align 8, !tbaa !4
  %.13865 = load ptr, ptr %23, align 8, !tbaa !13
  %.not4966 = icmp eq ptr %.13865, null
  br i1 %.not4966, label %.loopexit57, label %.lr.ph68

.lr.ph68:                                         ; preds = %21, %.lr.ph68
  %.13867 = phi ptr [ %.138, %.lr.ph68 ], [ %.13865, %21 ]
  %24 = load ptr, ptr %.13867, align 8, !tbaa !15
  %25 = tail call i32 (ptr, ptr, ...) @curl_mfprintf(ptr noundef nonnull %.036, ptr noundef nonnull @.str.10, ptr noundef %24) #5
  %26 = getelementptr inbounds nuw i8, ptr %.13867, i64 8
  %.138 = load ptr, ptr %26, align 8, !tbaa !13
  %.not49 = icmp eq ptr %.138, null
  br i1 %.not49, label %.loopexit57, label %.lr.ph68, !llvm.loop !30

.loopexit57:                                      ; preds = %.lr.ph68, %21, %.loopexit59
  %27 = tail call i32 (ptr, ptr, ...) @curl_mfprintf(ptr noundef nonnull %.036, ptr noundef nonnull @.str.11) #5
  %28 = load ptr, ptr @easysrc_code, align 8, !tbaa !4
  %.not50 = icmp eq ptr %28, null
  br i1 %.not50, label %.loopexit56, label %.preheader55

.preheader55:                                     ; preds = %.loopexit57
  %.269 = load ptr, ptr %28, align 8, !tbaa !13
  %.not5170 = icmp eq ptr %.269, null
  br i1 %.not5170, label %.loopexit56, label %.lr.ph72

.lr.ph72:                                         ; preds = %.preheader55, %35
  %.271 = phi ptr [ %.2, %35 ], [ %.269, %.preheader55 ]
  %29 = load ptr, ptr %.271, align 8, !tbaa !15
  %30 = load i8, ptr %29, align 1, !tbaa !31
  %.not = icmp eq i8 %30, 0
  br i1 %.not, label %33, label %31

31:                                               ; preds = %.lr.ph72
  %32 = tail call i32 (ptr, ptr, ...) @curl_mfprintf(ptr noundef nonnull %.036, ptr noundef nonnull @.str.10, ptr noundef nonnull %29) #5
  br label %35

33:                                               ; preds = %.lr.ph72
  %34 = tail call i32 (ptr, ptr, ...) @curl_mfprintf(ptr noundef nonnull %.036, ptr noundef nonnull @.str.11) #5
  br label %35

35:                                               ; preds = %31, %33
  %36 = getelementptr inbounds nuw i8, ptr %.271, i64 8
  %.2 = load ptr, ptr %36, align 8, !tbaa !13
  %.not51 = icmp eq ptr %.2, null
  br i1 %.not51, label %.loopexit56, label %.lr.ph72, !llvm.loop !32

.loopexit56:                                      ; preds = %35, %.preheader55, %.loopexit57
  %37 = load ptr, ptr @easysrc_clean, align 8, !tbaa !4
  %.not52 = icmp eq ptr %37, null
  br i1 %.not52, label %.loopexit.preheader, label %.preheader

.preheader:                                       ; preds = %.loopexit56
  %.373 = load ptr, ptr %37, align 8, !tbaa !13
  %.not5374 = icmp eq ptr %.373, null
  br i1 %.not5374, label %.loopexit.preheader, label %.lr.ph76

.lr.ph76:                                         ; preds = %.preheader, %.lr.ph76
  %.375 = phi ptr [ %.3, %.lr.ph76 ], [ %.373, %.preheader ]
  %38 = load ptr, ptr %.375, align 8, !tbaa !15
  %39 = tail call i32 (ptr, ptr, ...) @curl_mfprintf(ptr noundef nonnull %.036, ptr noundef nonnull @.str.10, ptr noundef %38) #5
  %40 = getelementptr inbounds nuw i8, ptr %.375, i64 8
  %.3 = load ptr, ptr %40, align 8, !tbaa !13
  %.not53 = icmp eq ptr %.3, null
  br i1 %.not53, label %.loopexit.preheader, label %.lr.ph76, !llvm.loop !33

.loopexit.preheader:                              ; preds = %.lr.ph76, %.preheader, %.loopexit56
  br label %.loopexit

.loopexit:                                        ; preds = %.loopexit.preheader, %.loopexit
  %indvars.iv80 = phi i64 [ %indvars.iv.next81, %.loopexit ], [ 0, %.loopexit.preheader ]
  %41 = getelementptr inbounds nuw [5 x ptr], ptr @srcend, i64 0, i64 %indvars.iv80
  %42 = load ptr, ptr %41, align 8, !tbaa !9
  %43 = tail call i32 (ptr, ptr, ...) @curl_mfprintf(ptr noundef nonnull %.036, ptr noundef nonnull @.str.9, ptr noundef %42) #5
  %indvars.iv.next81 = add nuw nsw i64 %indvars.iv80, 1
  %.not54 = icmp eq i64 %indvars.iv.next81, 4
  br i1 %.not54, label %44, label %.loopexit, !llvm.loop !34

44:                                               ; preds = %.loopexit
  br i1 %.not.not84, label %47, label %45

45:                                               ; preds = %44
  %46 = tail call i32 @fclose(ptr noundef nonnull %.036)
  br label %47

47:                                               ; preds = %44, %45, %11
  %48 = load ptr, ptr @easysrc_decl, align 8, !tbaa !4
  tail call void @slist_wc_free_all(ptr noundef %48) #5
  store ptr null, ptr @easysrc_decl, align 8, !tbaa !4
  %49 = load ptr, ptr @easysrc_data, align 8, !tbaa !4
  tail call void @slist_wc_free_all(ptr noundef %49) #5
  store ptr null, ptr @easysrc_data, align 8, !tbaa !4
  %50 = load ptr, ptr @easysrc_code, align 8, !tbaa !4
  tail call void @slist_wc_free_all(ptr noundef %50) #5
  store ptr null, ptr @easysrc_code, align 8, !tbaa !4
  %51 = load ptr, ptr @easysrc_toohard, align 8, !tbaa !4
  tail call void @slist_wc_free_all(ptr noundef %51) #5
  store ptr null, ptr @easysrc_toohard, align 8, !tbaa !4
  %52 = load ptr, ptr @easysrc_clean, align 8, !tbaa !4
  tail call void @slist_wc_free_all(ptr noundef %52) #5
  store ptr null, ptr @easysrc_clean, align 8, !tbaa !4
  ret void
}